target datalayout = "e-m:e-p270:32:32-p271:32:32-p272:64:64-i64:64-i128:128-f80:128-n8:16:32:64-S128"
target triple = "x86_64-pc-linux-gnu"

%struct.enc_struct = type { i32, i32, i32, i32, i32, ptr, ptr, ptr, [4384 x i8] }

; Function Attrs: nounwind uwtable
define i32 @BIO_set_cipher(ptr noundef %0, ptr noundef %1, ptr noundef %2, ptr noundef %3, i32 noundef %4) #0 {
  %6 = alloca i32, align 4
  %7 = alloca ptr, align 8
  %8 = alloca ptr, align 8
  %9 = alloca ptr, align 8
  %10 = alloca ptr, align 8
  %11 = alloca i32, align 4
  %12 = alloca ptr, align 8
  %13 = alloca ptr, align 8
  %14 = alloca ptr, align 8
  %15 = alloca i32, align 4
  store ptr %0, ptr %7, align 8, !tbaa !3
  store ptr %1, ptr %8, align 8, !tbaa !8
  store ptr %2, ptr %9, align 8, !tbaa !10
  store ptr %3, ptr %10, align 8, !tbaa !10
  store i32 %4, ptr %11, align 4, !tbaa !12
  call void @llvm.lifetime.start.p0(i64 8, ptr %12) #4
  call void @llvm.lifetime.start.p0(i64 8, ptr %13) #4
  call void @llvm.lifetime.start.p0(i64 8, ptr %14) #4
  store ptr null, ptr %14, align 8, !tbaa !14
  %16 = load ptr, ptr %7, align 8, !tbaa !3
  %17 = call ptr @BIO_get_data(ptr noundef %16)
  store ptr %17, ptr %12, align 8, !tbaa !15
  %18 = load ptr, ptr %12, align 8, !tbaa !15
  %19 = icmp eq ptr %18, null
  br i1 %19, label %20, label %21

20:                                               ; preds = %5
  store i32 0, ptr %6, align 4
  store i32 1, ptr %15, align 4
  br label %86

21:                                               ; preds = %5
  %22 = load ptr, ptr %7, align 8, !tbaa !3
  %23 = call ptr @BIO_get_callback_ex(ptr noundef %22)
  store ptr %23, ptr %13, align 8, !tbaa !14
  %24 = icmp ne ptr %23, null
  br i1 %24, label %25, label %35

25:                                               ; preds = %21
  %26 = load ptr, ptr %13, align 8, !tbaa !14
  %27 = load ptr, ptr %7, align 8, !tbaa !3
  %28 = load ptr, ptr %8, align 8, !tbaa !8
  %29 = load i32, ptr %11, align 4, !tbaa !12
  %30 = sext i32 %29 to i64
  %31 = call i64 %26(ptr noundef %27, i32 noundef 6, ptr noundef %28, i64 noundef 0, i32 noundef 4, i64 noundef %30, i32 noundef 1, ptr noundef null)
  %32 = icmp sle i64 %31, 0
  br i1 %32, label %33, label %34

33:                                               ; preds = %25
  store i32 0, ptr %6, align 4
  store i32 1, ptr %15, align 4
  br label %86

34:                                               ; preds = %25
  br label %50

35:                                               ; preds = %21
  %36 = load ptr, ptr %7, align 8, !tbaa !3
  %37 = call ptr @BIO_get_callback(ptr noundef %36)
  store ptr %37, ptr %14, align 8, !tbaa !14
  %38 = load ptr, ptr %14, align 8, !tbaa !14
  %39 = icmp ne ptr %38, null
  br i1 %39, label %40, label %49

40:                                               ; preds = %35
  %41 = load ptr, ptr %14, align 8, !tbaa !14
  %42 = load ptr, ptr %7, align 8, !tbaa !3
  %43 = load ptr, ptr %8, align 8, !tbaa !8
  %44 = load i32, ptr %11, align 4, !tbaa !12
  %45 = sext i32 %44 to i64
  %46 = call i64 %41(ptr noundef %42, i32 noundef 6, ptr noundef %43, i32 noundef 4, i64 noundef %45, i64 noundef 0)
  %47 = icmp sle i64 %46, 0
  br i1 %47, label %48, label %49

48:                                               ; preds = %40
  store i32 0, ptr %6, align 4
  store i32 1, ptr %15, align 4
  br label %86

49:                                               ; preds = %40, %35
  br label %50

50:                                               ; preds = %49, %34
  %51 = load ptr, ptr %7, align 8, !tbaa !3
  call void @BIO_set_init(ptr noundef %51, i32 noundef 1)
  %52 = load ptr, ptr %12, align 8, !tbaa !15
  %53 = getelementptr inbounds nuw %struct.enc_struct, ptr %52, i32 0, i32 5
  %54 = load ptr, ptr %53, align 8, !tbaa !17
  %55 = load ptr, ptr %8, align 8, !tbaa !8
  %56 = load ptr, ptr %9, align 8, !tbaa !10
  %57 = load ptr, ptr %10, align 8, !tbaa !10
  %58 = load i32, ptr %11, align 4, !tbaa !12
  %59 = call i32 @EVP_CipherInit_ex(ptr noundef %54, ptr noundef %55, ptr noundef null, ptr noundef %56, ptr noundef %57, i32 noundef %58)
  %60 = icmp ne i32 %59, 0
  br i1 %60, label %62, label %61

61:                                               ; preds = %50
  store i32 0, ptr %6, align 4
  store i32 1, ptr %15, align 4
  br label %86

62:                                               ; preds = %50
  %63 = load ptr, ptr %13, align 8, !tbaa !14
  %64 = icmp ne ptr %63, null
  br i1 %64, label %65, label %73

65:                                               ; preds = %62
  %66 = load ptr, ptr %13, align 8, !tbaa !14
  %67 = load ptr, ptr %7, align 8, !tbaa !3
  %68 = load ptr, ptr %8, align 8, !tbaa !8
  %69 = load i32, ptr %11, align 4, !tbaa !12
  %70 = sext i32 %69 to i64
  %71 = call i64 %66(ptr noundef %67, i32 noundef 134, ptr noundef %68, i64 noundef 0, i32 noundef 4, i64 noundef %70, i32 noundef 1, ptr noundef null)
  %72 = trunc i64 %71 to i32
  store i32 %72, ptr %6, align 4
  store i32 1, ptr %15, align 4
  br label %86

73:                                               ; preds = %62
  %74 = load ptr, ptr %14, align 8, !tbaa !14
  %75 = icmp ne ptr %74, null
  br i1 %75, label %76, label %84

76:                                               ; preds = %73
  %77 = load ptr, ptr %14, align 8, !tbaa !14
  %78 = load ptr, ptr %7, align 8, !tbaa !3
  %79 = load ptr, ptr %8, align 8, !tbaa !8
  %80 = load i32, ptr %11, align 4, !tbaa !12
  %81 = sext i32 %80 to i64
  %82 = call i64 %77(ptr noundef %78, i32 noundef 6, ptr noundef %79, i32 noundef 4, i64 noundef %81, i64 noundef 1)
  %83 = trunc i64 %82 to i32
  store i32 %83, ptr %6, align 4
  store i32 1, ptr %15, align 4
  br label %86

84:                                               ; preds = %73
  br label %85

85:                                               ; preds = %84
  store i32 1, ptr %6, align 4
  store i32 1, ptr %15, align 4
  br label %86

86:                                               ; preds = %85, %76, %65, %61, %48, %33, %20
  call void @llvm.lifetime.end.p0(i64 8, ptr %14) #4
  call void @llvm.lifetime.end.p0(i64 8, ptr %13) #4
  call void @llvm.lifetime.end.p0(i64 8, ptr %12) #4
  %87 = load i32, ptr %6, align 4
  ret i32 %87
}