; Function Attrs: nounwind uwtable
define i32 @BIO_set_cipher(ptr noundef %0, ptr noundef %1, ptr noundef %2, ptr noundef %3, i32 noundef %4) local_unnamed_addr #1 {
  %6 = tail call ptr @BIO_get_data(ptr noundef %0) #6
  %7 = icmp eq ptr %6, null
  br i1 %7, label %34, label %8

8:                                                ; preds = %5
  %9 = tail call ptr @BIO_get_callback_ex(ptr noundef %0) #6
  %.not = icmp eq ptr %9, null
  br i1 %.not, label %14, label %10

10:                                               ; preds = %8
  %11 = sext i32 %4 to i64
  %12 = tail call i64 %9(ptr noundef %0, i32 noundef 6, ptr noundef %1, i64 noundef 0, i32 noundef 4, i64 noundef %11, i32 noundef 1, ptr noundef null) #6
  %13 = icmp slt i64 %12, 1
  br i1 %13, label %34, label %20

14:                                               ; preds = %8
  %15 = tail call ptr @BIO_get_callback(ptr noundef %0) #6
  %.not34 = icmp eq ptr %15, null
  br i1 %.not34, label %20, label %16

16:                                               ; preds = %14
  %17 = sext i32 %4 to i64
  %18 = tail call i64 %15(ptr noundef %0, i32 noundef 6, ptr noundef %1, i32 noundef 4, i64 noundef %17, i64 noundef 0) #6
  %19 = icmp slt i64 %18, 1
  br i1 %19, label %34, label %20

20:                                               ; preds = %14, %16, %10
  %.0 = phi ptr [ null, %10 ], [ %15, %16 ], [ null, %14 ]
  tail call void @BIO_set_init(ptr noundef %0, i32 noundef 1) #6
  %21 = getelementptr inbounds nuw i8, ptr %6, i64 24
  %22 = load ptr, ptr %21, align 8, !tbaa !3
  %23 = tail call i32 @EVP_CipherInit_ex(ptr noundef %22, ptr noundef %1, ptr noundef null, ptr noundef %2, ptr noundef %3, i32 noundef %4) #6
  %.not35 = icmp eq i32 %23, 0
  br i1 %.not35, label %34, label %24

24:                                               ; preds = %20
  br i1 %.not, label %29, label %25

25:                                               ; preds = %24
  %26 = sext i32 %4 to i64
  %27 = tail call i64 %9(ptr noundef %0, i32 noundef 134, ptr noundef %1, i64 noundef 0, i32 noundef 4, i64 noundef %26, i32 noundef 1, ptr noundef null) #6
  %28 = trunc i64 %27 to i32
  br label %34

29:                                               ; preds = %24
  %.not36 = icmp eq ptr %.0, null
  br i1 %.not36, label %34, label %30

30:                                               ; preds = %29
  %31 = sext i32 %4 to i64
  %32 = tail call i64 %.0(ptr noundef %0, i32 noundef 6, ptr noundef %1, i32 noundef 4, i64 noundef %31, i64 noundef 1) #6
  %33 = trunc i64 %32 to i32
  br label %34

34:                                               ; preds = %29, %20, %16, %10, %5, %30, %25
  %.029 = phi i32 [ %28, %25 ], [ %33, %30 ], [ 0, %5 ], [ 0, %10 ], [ 0, %16 ], [ 0, %20 ], [ 1, %29 ]
  ret i32 %.029
}